Certificate:
    Data:
        Version: 3 (0x2)
        Serial Number: 4097 (0x1001)
    Signature Algorithm: md5WithRSAEncryption
        Issuer: C=us, ST=ut, L=slc, O=uu, OU=uusc, CN=ca/emailAddress=123
        Validity
            Not Before: Mar 22 20:14:48 2023 GMT
            Not After : Mar 21 20:14:48 2024 GMT
        Subject: C=us, ST=ut, O=uu, OU=uusc, CN=client/emailAddress=123
        Subject Public Key Info:
            Public Key Algorithm: rsaEncryption
                RSA Public-Key: (4096 bit)
                Modulus:
                    00:b8:ef:ce:5f:bb:d2:dc:f4:35:ed:76:c6:21:a7:
                    c1:14:cb:70:06:fa:ee:29:04:f9:fc:be:48:d5:94:
                    3d:4d:ae:83:40:87:12:30:fd:59:04:7b:2c:de:14:
                    3c:73:4a:f6:4d:23:40:5d:c8:fb:eb:de:bd:7c:0c:
                    c1:f2:84:57:51:8e:c8:6c:fe:16:69:1c:de:72:f9:
                    ab:94:8f:94:dd:5b:eb:96:13:79:69:e0:f3:62:d1:
                    c0:12:06:88:b1:f4:89:42:d3:6d:9a:8b:27:9c:93:
                    46:8c:ab:ae:cb:a3:78:ac:97:e3:5f:b3:64:b7:88:
                    98:33:ee:e7:fb:96:36:58:0c:1b:3a:72:ef:c7:4e:
                    f8:fd:f1:5a:61:6c:58:00:aa:f4:61:ce:ba:42:95:
                    55:f3:9b:06:41:05:d1:91:ec:c1:c7:cb:04:b1:c1:
                    d2:c4:7b:3c:2d:a0:c0:1b:a2:b4:e7:e1:71:4f:99:
                    a5:a7:b8:bd:9e:23:ab:0b:f1:ea:6c:5b:97:cf:5a:
                    c9:96:f2:b0:22:d6:10:d7:67:38:64:2a:ec:ff:4c:
                    18:ca:69:ba:03:03:71:98:2d:72:d9:96:76:94:97:
                    e4:f3:25:4f:27:94:9a:67:9b:f5:ff:8f:3b:46:45:
                    ad:88:90:00:9f:e5:14:1b:81:2a:6e:16:51:a6:a8:
                    2a:db:1b:0a:ec:8d:b6:0e:8d:c7:18:c1:90:55:e1:
                    69:b7:0a:87:48:30:6e:d8:f3:df:9d:b6:81:24:d8:
                    7c:9d:40:02:c2:2e:2a:e3:eb:f1:68:45:99:6f:26:
                    3f:d3:03:8c:e0:cb:bc:6e:76:98:6d:d1:2a:9c:29:
                    5e:8b:3f:6a:b5:e1:01:54:2e:c1:6a:7c:16:a4:e1:
                    df:28:69:75:89:c7:94:c8:5a:ab:5b:47:cf:be:37:
                    82:70:f8:be:4c:4d:81:f6:0f:88:58:e4:b4:c6:70:
                    b1:98:c9:6d:33:63:df:21:3d:84:f4:24:dc:0f:15:
                    dd:aa:23:8f:f4:8b:8f:c1:c9:3d:a7:f3:e7:0c:fc:
                    6b:73:dc:f2:5b:cd:8b:e3:f7:9c:ad:33:b8:dd:3c:
                    eb:a5:85:c5:c6:a1:23:12:d9:97:55:e3:d7:c4:c3:
                    f7:06:06:05:9b:c3:03:7f:7f:b1:e0:af:0f:f3:1a:
                    df:e3:76:31:4c:68:27:9c:68:f7:2e:d4:3e:4a:95:
                    45:dd:8d:7c:37:78:07:c8:0a:f9:2a:b9:41:70:5a:
                    fd:2d:a0:22:fb:9f:e2:e9:b3:63:74:01:34:c0:b2:
                    29:10:01:42:2e:6c:55:ed:99:db:c1:0c:29:e8:94:
                    74:d0:12:ec:ae:a3:fa:c0:44:e2:3d:0a:e1:14:b0:
                    95:e2:57
                Exponent: 65537 (0x10001)
        X509v3 extensions:
            X509v3 Basic Constraints: 
                CA:FALSE
            Netscape Comment: 
                OpenSSL Generated Certificate
            X509v3 Subject Key Identifier: 
                0B:9C:69:83:F3:15:D3:FF:40:51:A4:44:E6:DA:8F:AC:80:D2:6B:BF
            X509v3 Authority Key Identifier: 
                DirName:/C=us/ST=ut/L=slc/O=uu/OU=uusc/CN=ca/emailAddress=123
                serial:EC:A4:3E:73:2A:11:48:E6

    Signature Algorithm: md5WithRSAEncryption
         16:59:e1:51:c6:00:45:92:7a:74:17:b5:3b:5e:93:f7:91:86:
         6e:d8:0b:41:6a:bb:cc:b9:86:cf:87:8b:6e:a6:ab:3b:8c:08:
         4b:50:61:d1:8e:24:eb:c1:8b:49:60:4a:4d:56:bb:b3:54:0a:
         65:b5:bf:45:0f:6f:fd:2f:61:e6:ad:ad:23:0b:28:7d:56:84:
         ec:26:8d:e4:35:94:74:00:1d:ed:88:26:12:ed:c0:02:f2:2f:
         6b:29:b4:c4:e2:db:82:ac:50:c7:91:2a:c0:bf:04:dc:bf:a6:
         79:0a:17:7a:7a:61:a3:64:86:45:a9:12:01:0e:f9:39:ec:fd:
         72:70:91:a3:94:9a:c7:43:c9:e4:55:4f:34:49:68:0f:89:69:
         20:2f:c7:41:38:c7:2c:3d:37:cc:35:51:ef:8c:5a:68:6f:62:
         42:b2:94:c0:7a:11:71:8d:f1:67:51:25:1f:99:34:ad:19:f2:
         96:98:b9:1c:51:fb:f7:2b:2b:d4:a5:25:41:5b:c7:63:e6:ea:
         74:51:59:40:46:66:86:8c:38:23:d1:c9:0c:8a:d4:f6:8d:e2:
         3f:00:0d:cb:ed:c3:93:39:05:b0:92:0f:9b:e4:0a:5e:c3:01:
         35:bf:20:50:b7:4f:71:fa:e4:1f:d1:43:12:40:f0:92:c6:58:
         92:19:a3:1a:4c:b5:80:0f:f9:a3:6a:08:15:92:8d:94:13:c7:
         f0:b7:d4:ec:87:26:be:ca:12:df:14:42:58:1d:09:90:2a:a0:
         4e:96:55:af:0f:95:e3:50:c2:3f:7e:60:49:e2:02:7d:2c:be:
         da:f4:3f:60:18:6e:45:dc:c4:21:8b:93:15:24:31:3f:6a:a3:
         77:21:b1:7e:aa:cc:ed:b9:c8:af:90:21:10:f6:5e:25:00:db:
         88:a8:06:1b:8f:98:9b:d5:e7:41:ef:60:b0:8c:09:ad:9b:07:
         b4:07:95:5d:62:c7:4b:a5:f8:29:87:39:d9:99:73:de:ec:89:
         f3:97:e4:43:2b:50:c7:0e:82:51:4e:8e:9d:2e:33:62:1f:70:
         ac:63:5f:c0:53:58:44:03:e4:d9:2f:7a:31:6f:30:b7:c0:79:
         f2:5a:26:5c:12:03:d6:c5:10:57:7f:17:e1:42:96:a3:4b:f2:
         d7:a6:a3:ae:7d:fe:b3:b0:5c:12:0c:b1:f6:a2:4e:c7:c5:42:
         73:27:67:e0:e7:c3:cc:b6:e7:e0:74:42:12:b5:eb:56:e6:9f:
         4b:3d:2b:6f:dd:04:91:1f:38:6a:d6:61:f2:84:5a:b2:02:46:
         ed:c6:a5:76:f6:e8:1d:76:44:39:0f:64:db:39:92:cb:3a:14:
         56:2a:e6:9e:1e:04:b4:22
-----BEGIN CERTIFICATE-----
MIIGGTCCBAGgAwIBAgICEAEwDQYJKoZIhvcNAQEEBQAwZTELMAkGA1UEBhMCdXMx
CzAJBgNVBAgMAnV0MQwwCgYDVQQHDANzbGMxCzAJBgNVBAoMAnV1MQ0wCwYDVQQL
DAR1dXNjMQswCQYDVQQDDAJjYTESMBAGCSqGSIb3DQEJARYDMTIzMB4XDTIzMDMy
MjIwMTQ0OFoXDTI0MDMyMTIwMTQ0OFowWzELMAkGA1UEBhMCdXMxCzAJBgNVBAgM
AnV0MQswCQYDVQQKDAJ1dTENMAsGA1UECwwEdXVzYzEPMA0GA1UEAwwGY2xpZW50
MRIwEAYJKoZIhvcNAQkBFgMxMjMwggIiMA0GCSqGSIb3DQEBAQUAA4ICDwAwggIK
AoICAQC4785fu9Lc9DXtdsYhp8EUy3AG+u4pBPn8vkjVlD1NroNAhxIw/VkEeyze
FDxzSvZNI0BdyPvr3r18DMHyhFdRjshs/hZpHN5y+auUj5TdW+uWE3lp4PNi0cAS
Boix9IlC022aiyeck0aMq67Lo3isl+Nfs2S3iJgz7uf7ljZYDBs6cu/HTvj98Vph
bFgAqvRhzrpClVXzmwZBBdGR7MHHywSxwdLEezwtoMAborTn4XFPmaWnuL2eI6sL
8epsW5fPWsmW8rAi1hDXZzhkKuz/TBjKaboDA3GYLXLZlnaUl+TzJU8nlJpnm/X/
jztGRa2IkACf5RQbgSpuFlGmqCrbGwrsjbYOjccYwZBV4Wm3CodIMG7Y89+dtoEk
2HydQALCLirj6/FoRZlvJj/TA4zgy7xudpht0SqcKV6LP2q14QFULsFqfBak4d8o
aXWJx5TIWqtbR8++N4Jw+L5MTYH2D4hY5LTGcLGYyW0zY98hPYT0JNwPFd2qI4/0
i4/ByT2n8+cM/Gtz3PJbzYvj95ytM7jdPOulhcXGoSMS2ZdV49fEw/cGBgWbwwN/
f7Hgrw/zGt/jdjFMaCecaPcu1D5KlUXdjXw3eAfICvkquUFwWv0toCL7n+Lps2N0
ATTAsikQAUIubFXtmdvBDCnolHTQEuyuo/rAROI9CuEUsJXiVwIDAQABo4HcMIHZ
MAkGA1UdEwQCMAAwLAYJYIZIAYb4QgENBB8WHU9wZW5TU0wgR2VuZXJhdGVkIENl
cnRpZmljYXRlMB0GA1UdDgQWBBQLnGmD8xXT/0BRpETm2o+sgNJrvzB/BgNVHSME
eDB2oWmkZzBlMQswCQYDVQQGEwJ1czELMAkGA1UECAwCdXQxDDAKBgNVBAcMA3Ns
YzELMAkGA1UECgwCdXUxDTALBgNVBAsMBHV1c2MxCzAJBgNVBAMMAmNhMRIwEAYJ
KoZIhvcNAQkBFgMxMjOCCQDspD5zKhFI5jANBgkqhkiG9w0BAQQFAAOCAgEAFlnh
UcYARZJ6dBe1O16T95GGbtgLQWq7zLmGz4eLbqarO4wIS1Bh0Y4k68GLSWBKTVa7
s1QKZbW/RQ9v/S9h5q2tIwsofVaE7CaN5DWUdAAd7YgmEu3AAvIvaym0xOLbgqxQ
x5EqwL8E3L+meQoXenpho2SGRakSAQ75Oez9cnCRo5Sax0PJ5FVPNEloD4lpIC/H
QTjHLD03zDVR74xaaG9iQrKUwHoRcY3xZ1ElH5k0rRnylpi5HFH79ysr1KUlQVvH
Y+bqdFFZQEZmhow4I9HJDIrU9o3iPwANy+3DkzkFsJIPm+QKXsMBNb8gULdPcfrk
H9FDEkDwksZYkhmjGky1gA/5o2oIFZKNlBPH8LfU7IcmvsoS3xRCWB0JkCqgTpZV
rw+V41DCP35gSeICfSy+2vQ/YBhuRdzEIYuTFSQxP2qjdyGxfqrM7bnIr5AhEPZe
JQDbiKgGG4+Ym9XnQe9gsIwJrZsHtAeVXWLHS6X4KYc52Zlz3uyJ85fkQytQxw6C
UU6OnS4zYh9wrGNfwFNYRAPk2S96MW8wt8B58lomXBID1sUQV38X4UKWo0vy16aj
rn3+s7BcEgyx9qJOx8VCcydn4OfDzLbn4HRCErXrVuafSz0rb90EkR84atZh8oRa
sgJG7caldvboHXZEOQ9k2zmSyzoUVirmnh4EtCI=
-----END CERTIFICATE-----
