Certificate:
    Data:
        Version: 3 (0x2)
        Serial Number: 4096 (0x1000)
    Signature Algorithm: md5WithRSAEncryption
        Issuer: C=us, ST=ut, L=slc, O=uu, OU=uusc, CN=ca/emailAddress=123
        Validity
            Not Before: Mar 22 20:14:28 2023 GMT
            Not After : Mar 21 20:14:28 2024 GMT
        Subject: C=us, ST=ut, O=uu, OU=uusc, CN=server/emailAddress=123
        Subject Public Key Info:
            Public Key Algorithm: rsaEncryption
                RSA Public-Key: (4096 bit)
                Modulus:
                    00:97:63:1f:fa:fd:5c:ad:28:c7:05:67:98:d8:ba:
                    5f:ca:d8:53:02:a2:32:9d:df:29:b3:c7:b5:f4:e2:
                    8a:a2:00:34:32:09:f4:73:c4:68:76:14:22:00:29:
                    06:e0:5a:76:2b:6c:9e:19:c8:1d:38:a1:64:df:ab:
                    c0:af:fe:10:f9:aa:c8:52:e6:40:16:55:85:96:a9:
                    ab:e8:11:c1:85:f8:77:7c:07:67:33:97:1e:cd:e8:
                    f5:f8:4d:ba:24:f1:45:0e:29:24:d5:6f:70:c3:1f:
                    bf:97:d7:ff:92:e4:39:b0:7e:58:fc:aa:34:73:8f:
                    24:5e:0a:cd:25:e8:27:db:4f:68:f2:0e:f9:db:3f:
                    93:a5:3e:5f:f5:2a:65:ff:69:4a:d1:cb:fe:00:22:
                    59:02:65:5d:2c:f2:df:80:ee:e9:86:46:81:01:84:
                    3e:69:13:c5:70:65:12:1a:5b:73:7b:18:12:49:69:
                    59:a4:77:a8:29:0e:60:a2:88:de:63:63:86:fc:d2:
                    46:c2:37:c6:6d:fa:2c:e9:f8:bf:36:bd:a8:89:83:
                    b3:4f:33:82:f6:03:a6:c1:16:dd:30:ab:65:f7:8f:
                    4d:9b:68:97:5c:83:20:b9:7a:fa:4b:7d:ad:20:45:
                    f6:18:2a:e4:f1:3f:c0:21:f4:7b:61:d1:ce:2a:fd:
                    26:69:36:44:c1:b3:b5:36:61:03:35:4a:2a:88:64:
                    bc:ac:98:e7:eb:5d:04:4f:0e:a1:a6:7f:1a:98:ee:
                    3c:b8:21:35:2a:00:25:e4:e5:bf:85:3c:3c:bc:e4:
                    63:cd:88:e6:cf:06:5d:54:4d:65:93:9e:c5:12:14:
                    ee:10:b2:53:b4:d1:76:53:64:dd:d1:5d:9f:52:33:
                    11:5c:7d:44:5f:c9:f1:63:8d:0b:8d:3a:e7:a1:d9:
                    e3:5d:74:6a:cd:5f:d6:e9:f0:27:22:95:7c:c8:96:
                    f5:4a:82:a7:35:8c:05:38:64:2a:d1:a2:0b:39:1d:
                    89:a8:1c:fb:e0:4a:31:ba:64:7f:f7:a1:eb:c4:c1:
                    7c:98:7a:f1:c2:ea:ff:a6:ef:ce:69:42:ef:d4:ff:
                    91:77:c1:7b:06:1c:16:eb:ab:08:ce:56:b3:90:54:
                    d9:af:f2:85:8e:6a:4b:9e:cf:36:7d:7a:21:38:e6:
                    81:63:ac:ae:ed:5f:d2:fe:17:4d:f7:c8:75:7c:71:
                    9b:84:7b:9e:30:dd:6b:47:24:78:40:fb:de:e3:61:
                    7e:89:0a:6a:b2:d1:a1:fd:d4:e9:d8:6b:0e:33:e3:
                    f3:99:47:c2:4a:1a:8a:8e:9e:3f:ec:9c:b5:f1:bc:
                    e9:fc:46:9a:0a:4c:83:fb:a9:9e:6c:83:18:ab:90:
                    fa:17:f9
                Exponent: 65537 (0x10001)
        X509v3 extensions:
            X509v3 Basic Constraints: 
                CA:FALSE
            Netscape Comment: 
                OpenSSL Generated Certificate
            X509v3 Subject Key Identifier: 
                0A:81:82:C0:C5:BD:F6:2E:C9:A7:3B:A8:7B:94:D4:A4:2D:C9:E3:BC
            X509v3 Authority Key Identifier: 
                DirName:/C=us/ST=ut/L=slc/O=uu/OU=uusc/CN=ca/emailAddress=123
                serial:EC:A4:3E:73:2A:11:48:E6

    Signature Algorithm: md5WithRSAEncryption
         48:8b:e4:76:c7:45:2e:95:3f:31:51:54:13:9e:30:19:f7:72:
         8d:87:ca:a7:56:60:61:f9:c8:bd:e8:90:ea:06:fa:2c:0b:89:
         f0:18:fa:47:88:fc:ab:9b:0c:b3:08:04:07:fd:10:b5:b6:6b:
         e1:0a:b9:0b:5c:f4:54:69:48:8a:78:08:11:30:9f:a6:bf:e3:
         dc:f2:22:00:b1:cf:96:eb:a0:ed:f2:21:fe:75:a2:41:f0:62:
         cf:d2:4d:05:ff:e7:d0:7b:0f:e9:6a:1e:33:cd:3b:6c:a7:9a:
         4d:01:39:e0:16:53:ce:99:e9:38:37:c9:73:66:3c:f7:6d:65:
         7b:18:43:b5:d0:ed:4a:07:2c:55:f4:f7:aa:bc:ce:c5:d8:6f:
         28:84:ba:ce:01:3e:91:ba:87:30:39:13:2f:e8:ac:b2:6c:6b:
         af:9f:65:9e:31:28:42:e8:fb:dd:79:07:44:92:12:01:10:cc:
         2d:16:fa:6e:b4:81:4e:3b:18:b1:7e:13:e8:4b:cc:98:13:02:
         66:40:c8:0e:99:13:2d:93:dd:c4:bb:d5:a2:4d:c6:da:8a:37:
         11:c3:18:a8:fa:63:03:3b:c8:0f:7d:26:aa:00:00:b8:c5:36:
         c2:c6:8d:0b:ed:5b:74:29:16:fd:cf:e9:de:f6:d8:db:09:b7:
         2a:4b:4f:bf:c2:55:32:e8:27:94:64:28:f4:60:e0:bd:85:cb:
         7d:c9:aa:26:b8:b9:a6:31:f1:9f:88:78:76:e5:14:bf:2c:e8:
         49:cb:f4:9b:71:c2:7b:b4:a3:75:35:ae:17:eb:22:88:5c:91:
         4b:a6:d0:05:30:29:f4:1f:b5:c9:c5:18:c7:b9:02:6a:32:15:
         7e:a4:c7:fc:8e:b8:f0:19:ff:7e:13:4a:70:01:f8:a2:63:0d:
         14:b8:3f:52:22:54:2e:af:58:06:0b:8b:88:d0:9c:a9:1f:be:
         27:a8:85:5d:cd:70:d8:54:21:24:26:c1:17:3e:79:92:85:33:
         f0:02:73:48:bb:67:9e:8c:fc:2a:01:db:87:d4:65:1f:3f:82:
         00:4a:0f:63:ae:4d:a1:5f:50:be:08:e9:c6:54:a6:c1:58:64:
         d6:59:dc:15:62:ec:54:ee:67:64:b9:8b:c3:61:d8:75:38:24:
         36:99:53:ea:41:16:a0:20:33:e3:6b:e9:86:23:3e:9a:68:23:
         b8:6d:a4:56:cb:1d:6f:d6:d2:dc:98:91:a4:f0:02:09:1e:c7:
         f5:c5:84:20:55:f7:c0:af:8a:5b:3d:13:20:a8:32:3e:78:3a:
         53:73:d1:05:e4:49:ab:c1:f6:b1:ca:a6:48:46:8b:44:1a:d9:
         3d:10:50:d9:19:b3:d8:06
-----BEGIN CERTIFICATE-----
MIIGGTCCBAGgAwIBAgICEAAwDQYJKoZIhvcNAQEEBQAwZTELMAkGA1UEBhMCdXMx
CzAJBgNVBAgMAnV0MQwwCgYDVQQHDANzbGMxCzAJBgNVBAoMAnV1MQ0wCwYDVQQL
DAR1dXNjMQswCQYDVQQDDAJjYTESMBAGCSqGSIb3DQEJARYDMTIzMB4XDTIzMDMy
MjIwMTQyOFoXDTI0MDMyMTIwMTQyOFowWzELMAkGA1UEBhMCdXMxCzAJBgNVBAgM
AnV0MQswCQYDVQQKDAJ1dTENMAsGA1UECwwEdXVzYzEPMA0GA1UEAwwGc2VydmVy
MRIwEAYJKoZIhvcNAQkBFgMxMjMwggIiMA0GCSqGSIb3DQEBAQUAA4ICDwAwggIK
AoICAQCXYx/6/VytKMcFZ5jYul/K2FMCojKd3ymzx7X04oqiADQyCfRzxGh2FCIA
KQbgWnYrbJ4ZyB04oWTfq8Cv/hD5qshS5kAWVYWWqavoEcGF+Hd8B2czlx7N6PX4
Tbok8UUOKSTVb3DDH7+X1/+S5Dmwflj8qjRzjyReCs0l6CfbT2jyDvnbP5OlPl/1
KmX/aUrRy/4AIlkCZV0s8t+A7umGRoEBhD5pE8VwZRIaW3N7GBJJaVmkd6gpDmCi
iN5jY4b80kbCN8Zt+izp+L82vaiJg7NPM4L2A6bBFt0wq2X3j02baJdcgyC5evpL
fa0gRfYYKuTxP8Ah9Hth0c4q/SZpNkTBs7U2YQM1SiqIZLysmOfrXQRPDqGmfxqY
7jy4ITUqACXk5b+FPDy85GPNiObPBl1UTWWTnsUSFO4QslO00XZTZN3RXZ9SMxFc
fURfyfFjjQuNOueh2eNddGrNX9bp8CcilXzIlvVKgqc1jAU4ZCrRogs5HYmoHPvg
SjG6ZH/3oevEwXyYevHC6v+m785pQu/U/5F3wXsGHBbrqwjOVrOQVNmv8oWOakue
zzZ9eiE45oFjrK7tX9L+F033yHV8cZuEe54w3WtHJHhA+97jYX6JCmqy0aH91OnY
aw4z4/OZR8JKGoqOnj/snLXxvOn8RpoKTIP7qZ5sgxirkPoX+QIDAQABo4HcMIHZ
MAkGA1UdEwQCMAAwLAYJYIZIAYb4QgENBB8WHU9wZW5TU0wgR2VuZXJhdGVkIENl
cnRpZmljYXRlMB0GA1UdDgQWBBQKgYLAxb32LsmnO6h7lNSkLcnjvDB/BgNVHSME
eDB2oWmkZzBlMQswCQYDVQQGEwJ1czELMAkGA1UECAwCdXQxDDAKBgNVBAcMA3Ns
YzELMAkGA1UECgwCdXUxDTALBgNVBAsMBHV1c2MxCzAJBgNVBAMMAmNhMRIwEAYJ
KoZIhvcNAQkBFgMxMjOCCQDspD5zKhFI5jANBgkqhkiG9w0BAQQFAAOCAgEASIvk
dsdFLpU/MVFUE54wGfdyjYfKp1ZgYfnIveiQ6gb6LAuJ8Bj6R4j8q5sMswgEB/0Q
tbZr4Qq5C1z0VGlIingIETCfpr/j3PIiALHPluug7fIh/nWiQfBiz9JNBf/n0HsP
6WoeM807bKeaTQE54BZTzpnpODfJc2Y8921lexhDtdDtSgcsVfT3qrzOxdhvKIS6
zgE+kbqHMDkTL+issmxrr59lnjEoQuj73XkHRJISARDMLRb6brSBTjsYsX4T6EvM
mBMCZkDIDpkTLZPdxLvVok3G2oo3EcMYqPpjAzvID30mqgAAuMU2wsaNC+1bdCkW
/c/p3vbY2wm3KktPv8JVMugnlGQo9GDgvYXLfcmqJri5pjHxn4h4duUUvyzoScv0
m3HCe7SjdTWuF+siiFyRS6bQBTAp9B+1ycUYx7kCajIVfqTH/I648Bn/fhNKcAH4
omMNFLg/UiJULq9YBguLiNCcqR++J6iFXc1w2FQhJCbBFz55koUz8AJzSLtnnoz8
KgHbh9RlHz+CAEoPY65NoV9QvgjpxlSmwVhk1lncFWLsVO5nZLmLw2HYdTgkNplT
6kEWoCAz42vphiM+mmgjuG2kVssdb9bS3JiRpPACCR7H9cWEIFX3wK+KWz0TIKgy
Png6U3PRBeRJq8H2scqmSEaLRBrZPRBQ2Rmz2AY=
-----END CERTIFICATE-----
